target datalayout = "e-m:e-p270:32:32-p271:32:32-p272:64:64-i64:64-i128:128-f80:128-n8:16:32:64-S128"
target triple = "x86_64-pc-linux-gnu"

%"struct.llvm::rdf::NodeAddr.58" = type <{ ptr, i32, [4 x i8] }>
%"struct.llvm::rdf::NodeBase" = type { i16, i16, i32, %union.anon }
%union.anon = type { %"struct.llvm::rdf::NodeBase::Ref_struct" }
%"struct.llvm::rdf::NodeBase::Ref_struct" = type { i32, i32, %union.anon.60, %union.anon.61 }
%union.anon.60 = type { %"struct.llvm::rdf::NodeBase::Def_struct" }
%"struct.llvm::rdf::NodeBase::Def_struct" = type { i32, i32 }
%union.anon.61 = type { ptr }

; Function Attrs: mustprogress nounwind uwtable
define dso_local void @_ZN4llvm3rdf8NodeBase6appendENS0_8NodeAddrIPS1_EE(ptr noundef nonnull align 8 dereferenceable(32) %0, ptr %1, i32 %2) #0 align 2 {
  %4 = alloca %"struct.llvm::rdf::NodeAddr.58", align 8
  %5 = alloca ptr, align 8
  %6 = alloca i32, align 4
  %7 = getelementptr inbounds nuw { ptr, i32 }, ptr %4, i32 0, i32 0
  store ptr %1, ptr %7, align 8
  %8 = getelementptr inbounds nuw { ptr, i32 }, ptr %4, i32 0, i32 1
  store i32 %2, ptr %8, align 8
  store ptr %0, ptr %5, align 8
  %9 = load ptr, ptr %5, align 8
  %10 = getelementptr inbounds nuw %"struct.llvm::rdf::NodeBase", ptr %9, i32 0, i32 2
  %11 = load i32, ptr %10, align 4
  store i32 %11, ptr %6, align 4
  %12 = getelementptr inbounds nuw %"struct.llvm::rdf::NodeBase", ptr %9, i32 0, i32 2
  %13 = load i32, ptr %12, align 4
  %14 = getelementptr inbounds nuw %"struct.llvm::rdf::NodeAddr.58", ptr %4, i32 0, i32 1
  %15 = load i32, ptr %14, align 8
  %16 = icmp ne i32 %13, %15
  br i1 %16, label %17, label %25

17:                                               ; preds = %3
  %18 = getelementptr inbounds nuw %"struct.llvm::rdf::NodeAddr.58", ptr %4, i32 0, i32 1
  %19 = load i32, ptr %18, align 8
  %20 = getelementptr inbounds nuw %"struct.llvm::rdf::NodeBase", ptr %9, i32 0, i32 2
  store i32 %19, ptr %20, align 4
  %21 = load i32, ptr %6, align 4
  %22 = getelementptr inbounds nuw %"struct.llvm::rdf::NodeAddr.58", ptr %4, i32 0, i32 0
  %23 = load ptr, ptr %22, align 8
  %24 = getelementptr inbounds nuw %"struct.llvm::rdf::NodeBase", ptr %23, i32 0, i32 2
  store i32 %21, ptr %24, align 4
  br label %25

25:                                               ; preds = %17, %3
  ret void
}