; Function Attrs: mustprogress nofree norecurse nosync nounwind willreturn memory(argmem: readwrite) uwtable
define dso_local void @_ZN4llvm3rdf8NodeBase6appendENS0_8NodeAddrIPS1_EE(ptr noundef nonnull align 8 captures(none) dereferenceable(32) %0, ptr writeonly captures(none) %1, i32 %2) local_unnamed_addr #5 align 2 {
  %4 = getelementptr inbounds nuw i8, ptr %0, i64 4
  %5 = load i32, ptr %4, align 4
  %.not = icmp eq i32 %5, %2
  br i1 %.not, label %8, label %6

6:                                                ; preds = %3
  store i32 %2, ptr %4, align 4
  %7 = getelementptr inbounds nuw i8, ptr %1, i64 4
  store i32 %5, ptr %7, align 4
  br label %8

8:                                                ; preds = %6, %3
  ret void
}